Certificate:
    Data:
        Version: 3 (0x2)
        Serial Number:
            e8:f5:6d:a6:58:5c:5f:8c
    Signature Algorithm: sha256WithRSAEncryption
        Issuer: C=CN, ST=FUJIAN, O=NEWLAND, OU=NEWLAND, CN=NEWLAND/emailAddress=newlandpayment.com
        Validity
            Not Before: Sep 28 14:10:23 2020 GMT
            Not After : Sep 28 14:10:23 2023 GMT
        Subject: C=CN, ST=FUJIAN, O=NEWLAND, OU=NEWLAND, CN=NEWLAND/emailAddress=newlandpayment.com
        Subject Public Key Info:
            Public Key Algorithm: rsaEncryption
                Public-Key: (2048 bit)
                Modulus:
                    00:d6:d2:fe:76:ac:b3:52:98:26:d1:a2:6f:fe:0b:
                    c1:b7:98:75:8a:82:9d:bc:bf:bf:1f:cd:e9:99:a6:
                    8f:3b:94:24:8c:78:4c:01:21:72:76:0f:42:81:f5:
                    88:d0:76:c1:88:e3:79:74:0e:c6:68:8a:f3:b4:82:
                    dd:50:db:c4:9a:00:42:dd:b7:d3:31:5a:c5:c1:c2:
                    ca:93:0c:19:06:99:21:dd:1d:33:30:1c:09:00:1b:
                    02:10:12:f6:8a:1e:07:b1:fc:b1:0b:b3:f9:e3:8c:
                    df:b9:65:5a:ef:b4:0a:b4:31:10:62:12:91:e6:d9:
                    dd:2e:e5:98:1d:8a:75:8d:ef:58:b2:c9:de:50:f6:
                    f2:d2:5a:62:a2:5f:2f:aa:3e:80:3e:8c:07:6d:41:
                    b3:a3:3c:a8:98:3d:67:64:eb:01:5d:39:31:dc:87:
                    9e:46:e7:bb:a2:32:47:63:2b:0f:b5:bd:59:b7:14:
                    e6:ae:12:c4:07:cd:24:12:67:5d:67:b9:f7:70:15:
                    9f:ff:f2:bc:d8:bf:47:22:ff:ee:93:63:58:8a:b3:
                    5b:e6:1d:d4:64:2a:8f:fb:86:e5:b2:61:50:fc:15:
                    2d:49:ab:59:05:c1:36:57:a9:21:a8:ac:a0:f7:50:
                    c7:f4:dd:b7:e5:3a:a0:87:03:d1:d0:08:0d:4e:88:
                    99:23
                Exponent: 65537 (0x10001)
        X509v3 extensions:
            X509v3 Subject Key Identifier: 
                40:CB:54:CC:04:6B:FE:AC:F7:79:A5:E3:63:28:F2:56:B9:D8:04:D8
            X509v3 Authority Key Identifier: 
                keyid:40:CB:54:CC:04:6B:FE:AC:F7:79:A5:E3:63:28:F2:56:B9:D8:04:D8

            X509v3 Basic Constraints: 
                CA:TRUE
    Signature Algorithm: sha256WithRSAEncryption
         c7:88:68:88:56:ca:77:1b:64:67:11:a4:cc:0b:02:1b:e2:ef:
         7b:b5:15:7f:a9:5c:e8:dc:93:c5:4d:58:d6:2d:89:74:47:9b:
         1c:e9:52:92:76:d5:bd:fd:a3:63:ca:ec:af:14:50:ad:dc:cd:
         41:6e:55:1f:83:8e:05:af:93:ff:51:f3:32:71:42:4d:4f:c8:
         ae:1d:13:20:84:6d:b3:20:8a:63:81:e2:1c:f1:c6:0b:70:6f:
         ee:86:cd:33:ac:c6:d8:61:d9:ba:92:5a:49:12:83:1a:dd:77:
         ae:02:65:8e:da:5a:31:80:c2:d1:0f:e3:70:93:78:e5:d6:49:
         35:55:2a:42:43:83:9c:32:86:35:38:4f:7a:91:0b:78:27:b3:
         21:4e:60:25:a6:9d:5c:eb:59:bd:81:7e:c0:fb:d2:34:61:b0:
         9b:c1:83:8d:93:b6:08:71:d9:6e:c7:59:8e:84:ca:dd:2a:db:
         df:51:36:3a:3a:fa:0d:3b:da:c6:1e:15:11:c9:15:05:13:8f:
         eb:87:f7:48:dc:a0:1d:a6:0b:07:5b:6c:35:f5:8b:b5:e3:0d:
         23:18:c0:86:72:df:8f:0b:02:77:ee:0d:21:6d:f7:99:07:12:
         05:35:cf:53:e9:94:81:71:e2:68:f9:12:99:af:71:b9:6e:55:
         f7:31:69:ff
-----BEGIN CERTIFICATE-----
MIIDwTCCAqmgAwIBAgIJAOj1baZYXF+MMA0GCSqGSIb3DQEBCwUAMHcxCzAJBgNV
BAYTAkNOMQ8wDQYDVQQIDAZGVUpJQU4xEDAOBgNVBAoMB05FV0xBTkQxEDAOBgNV
BAsMB05FV0xBTkQxEDAOBgNVBAMMB05FV0xBTkQxITAfBgkqhkiG9w0BCQEWEm5l
d2xhbmRwYXltZW50LmNvbTAeFw0yMDA5MjgxNDEwMjNaFw0yMzA5MjgxNDEwMjNa
MHcxCzAJBgNVBAYTAkNOMQ8wDQYDVQQIDAZGVUpJQU4xEDAOBgNVBAoMB05FV0xB
TkQxEDAOBgNVBAsMB05FV0xBTkQxEDAOBgNVBAMMB05FV0xBTkQxITAfBgkqhkiG
9w0BCQEWEm5ld2xhbmRwYXltZW50LmNvbTCCASIwDQYJKoZIhvcNAQEBBQADggEP
ADCCAQoCggEBANbS/nass1KYJtGib/4LwbeYdYqCnby/vx/N6ZmmjzuUJIx4TAEh
cnYPQoH1iNB2wYjjeXQOxmiK87SC3VDbxJoAQt230zFaxcHCypMMGQaZId0dMzAc
CQAbAhAS9ooeB7H8sQuz+eOM37llWu+0CrQxEGISkebZ3S7lmB2KdY3vWLLJ3lD2
8tJaYqJfL6o+gD6MB21Bs6M8qJg9Z2TrAV05MdyHnkbnu6IyR2MrD7W9WbcU5q4S
xAfNJBJnXWe593AVn//yvNi/RyL/7pNjWIqzW+Yd1GQqj/uG5bJhUPwVLUmrWQXB
NlepIaisoPdQx/Tdt+U6oIcD0dAIDU6ImSMCAwEAAaNQME4wHQYDVR0OBBYEFEDL
VMwEa/6s93ml42Mo8la52ATYMB8GA1UdIwQYMBaAFEDLVMwEa/6s93ml42Mo8la5
2ATYMAwGA1UdEwQFMAMBAf8wDQYJKoZIhvcNAQELBQADggEBAMeIaIhWyncbZGcR
pMwLAhvi73u1FX+pXOjck8VNWNYtiXRHmxzpUpJ21b39o2PK7K8UUK3czUFuVR+D
jgWvk/9R8zJxQk1PyK4dEyCEbbMgimOB4hzxxgtwb+6GzTOsxthh2bqSWkkSgxrd
d64CZY7aWjGAwtEP43CTeOXWSTVVKkJDg5wyhjU4T3qRC3gnsyFOYCWmnVzrWb2B
fsD70jRhsJvBg42Ttghx2W7HWY6Eyt0q299RNjo6+g072sYeFRHJFQUTj+uH90jc
oB2mCwdbbDX1i7XjDSMYwIZy348LAnfuDSFt95kHEgU1z1PplIFx4mj5Epmvcblu
Vfcxaf8=
-----END CERTIFICATE-----
