Certificate:
    Data:
        Version: 3 (0x2)
        Serial Number:
            e8:f5:6d:a6:58:5c:5f:8d
    Signature Algorithm: sha256WithRSAEncryption
        Issuer: C=CN, ST=FUJIAN, L=FUZHOU, O=NEWLAND, OU=NEWLAND, CN=TOM.CHEN/emailAddress=tom.chen@newlandpayment.com
        Validity
            Not Before: Sep 28 14:20:12 2020 GMT
            Not After : Sep 28 14:20:12 2021 GMT
        Subject: C=CN, ST=FUJIAN, L=FUZHOU, O=NEWLAND, OU=NEWLAND, CN=TOM.CHEN/emailAddress=tom.chen@newlandpayment.com
        Subject Public Key Info:
            Public Key Algorithm: rsaEncryption
                Public-Key: (1024 bit)
                Modulus:
                    00:cb:52:4e:8d:60:39:32:04:04:d1:dc:18:37:30:
                    2e:69:43:97:e7:cc:ca:9f:25:48:9b:3f:0a:66:46:
                    df:de:9e:14:f7:a3:77:aa:71:c4:b6:c1:04:70:e7:
                    05:c6:98:5a:ea:04:78:c0:f5:31:bf:d5:42:72:ac:
                    0c:3b:63:66:9c:b4:95:3d:b7:fc:00:8e:a7:97:9c:
                    0b:fb:5a:38:e6:92:dc:24:a2:e3:f1:aa:56:63:1b:
                    92:6a:5a:67:da:1f:8a:b3:0a:fa:17:47:7e:13:72:
                    10:ce:37:cb:44:3b:02:27:e9:39:61:1c:7a:ac:26:
                    55:cc:fe:4b:27:6d:5d:e3:a3
                Exponent: 65537 (0x10001)
        X509v3 extensions:
            X509v3 Basic Constraints: 
                CA:FALSE
            Netscape Comment: 
                OpenSSL Generated Certificate
            X509v3 Subject Key Identifier: 
                6C:D6:B2:C2:8D:B6:7D:1D:6C:49:70:D9:C5:F6:A3:95:BC:B1:4A:84
            X509v3 Authority Key Identifier: 
                keyid:84:B6:1F:E6:CF:2E:BA:E2:D2:C9:4D:FE:4A:8B:F9:E3:89:DD:18:C2

    Signature Algorithm: sha256WithRSAEncryption
         3c:9e:5e:e1:50:1b:bf:b8:b0:1f:3e:3b:8b:ad:e2:5a:39:16:
         3e:f0:44:4f:a4:26:55:f4:a4:db:0a:67:ce:bc:e6:b1:67:6c:
         df:3f:5d:bd:e7:e7:2d:73:28:5a:9f:a5:36:24:58:15:14:b8:
         8b:9a:f6:8a:0b:d6:c5:f6:a5:ea:5a:e1:eb:34:58:65:c4:f0:
         82:ef:bd:64:79:6c:63:59:e3:83:09:a9:0a:7d:fd:04:91:35:
         fa:49:8a:d2:f4:bd:25:d3:c9:ac:74:32:1a:28:46:d3:16:67:
         fe:b8:82:c6:ca:10:c1:0d:bc:17:30:c9:e5:30:c8:c5:0d:21:
         a9:c5:10:86:4b:6d:83:95:35:29:17:01:d2:4e:45:f6:98:cc:
         9a:f7:1c:f6:a9:0c:ea:41:3e:5d:4e:df:75:7c:c6:37:27:1f:
         d0:41:9f:de:88:58:7a:21:67:e9:db:48:4a:18:dc:ea:55:b8:
         8a:c9:8a:44:16:b4:4d:0b:d8:bd:cf:d3:f0:a5:aa:49:0e:0f:
         bc:6c:fb:81:4d:96:dc:6f:f4:2d:f9:13:2b:29:7b:1d:be:6d:
         61:1e:79:39:3b:7d:05:7d:27:ca:8c:d4:78:40:ff:b9:ee:8b:
         98:8d:e1:9e:6c:55:bd:62:d3:06:f1:2a:21:51:ab:da:c2:0a:
         7a:1a:ee:81
-----BEGIN CERTIFICATE-----
MIIDoDCCAoigAwIBAgIJAOj1baZYXF+NMA0GCSqGSIb3DQEBCwUAMIGSMQswCQYD
VQQGEwJDTjEPMA0GA1UECAwGRlVKSUFOMQ8wDQYDVQQHDAZGVVpIT1UxEDAOBgNV
BAoMB05FV0xBTkQxEDAOBgNVBAsMB05FV0xBTkQxETAPBgNVBAMMCFRPTS5DSEVO
MSowKAYJKoZIhvcNAQkBFht0b20uY2hlbkBuZXdsYW5kcGF5bWVudC5jb20wHhcN
MjAwOTI4MTQyMDEyWhcNMjEwOTI4MTQyMDEyWjCBkjELMAkGA1UEBhMCQ04xDzAN
BgNVBAgMBkZVSklBTjEPMA0GA1UEBwwGRlVaSE9VMRAwDgYDVQQKDAdORVdMQU5E
MRAwDgYDVQQLDAdORVdMQU5EMREwDwYDVQQDDAhUT00uQ0hFTjEqMCgGCSqGSIb3
DQEJARYbdG9tLmNoZW5AbmV3bGFuZHBheW1lbnQuY29tMIGfMA0GCSqGSIb3DQEB
AQUAA4GNADCBiQKBgQDLUk6NYDkyBATR3Bg3MC5pQ5fnzMqfJUibPwpmRt/enhT3
o3eqccS2wQRw5wXGmFrqBHjA9TG/1UJyrAw7Y2actJU9t/wAjqeXnAv7Wjjmktwk
ouPxqlZjG5JqWmfaH4qzCvoXR34TchDON8tEOwIn6TlhHHqsJlXM/ksnbV3jowID
AQABo3sweTAJBgNVHRMEAjAAMCwGCWCGSAGG+EIBDQQfFh1PcGVuU1NMIEdlbmVy
YXRlZCBDZXJ0aWZpY2F0ZTAdBgNVHQ4EFgQUbNaywo22fR1sSXDZxfajlbyxSoQw
HwYDVR0jBBgwFoAUhLYf5s8uuuLSyU3+Sov544ndGMIwDQYJKoZIhvcNAQELBQAD
ggEBADyeXuFQG7+4sB8+O4ut4lo5Fj7wRE+kJlX0pNsKZ8685rFnbN8/Xb3n5y1z
KFqfpTYkWBUUuIua9ooL1sX2pepa4es0WGXE8ILvvWR5bGNZ44MJqQp9/QSRNfpJ
itL0vSXTyax0MhooRtMWZ/64gsbKEMENvBcwyeUwyMUNIanFEIZLbYOVNSkXAdJO
RfaYzJr3HPapDOpBPl1O33V8xjcnH9BBn96IWHohZ+nbSEoY3OpVuIrJikQWtE0L
2L3P0/ClqkkOD7xs+4FNltxv9C35Eyspex2+bWEeeTk7fQV9J8qM1HhA/7nui5iN
4Z5sVb1i0wbxKiFRq9rCCnoa7oE=
-----END CERTIFICATE-----
