Certificate:
    Data:
        Version: 3 (0x2)
        Serial Number:
            e8:f5:6d:a6:58:5c:5f:8e
    Signature Algorithm: sha256WithRSAEncryption
        Issuer: C=CN, ST=FUJIAN, L=FUZHOU, O=NEWLAND, OU=NEWLAND, CN=TOM.CHEN/emailAddress=tom.chen@newlandpayment.com
        Validity
            Not Before: Sep 28 14:27:54 2020 GMT
            Not After : Sep 28 14:27:54 2021 GMT
        Subject: C=CN, ST=FJ, L=FZ, O=NEWLAND, OU=NEWLAND, CN=chenxiulin/emailAddress=chenxiulin
        Subject Public Key Info:
            Public Key Algorithm: rsaEncryption
                Public-Key: (1024 bit)
                Modulus:
                    00:ed:b6:8a:39:bb:c1:3d:30:0f:38:d5:8e:c1:8d:
                    0b:13:8a:5d:be:16:83:97:ca:5a:e9:f8:e9:f7:5d:
                    9c:63:6e:28:e5:66:09:7f:16:86:91:a0:06:78:2d:
                    33:ee:3d:16:13:89:c0:7f:31:a8:b6:cb:35:3e:b7:
                    f0:e5:da:05:4e:dc:ab:f0:8e:bf:92:c1:44:1d:c7:
                    cb:eb:b6:8b:46:4e:b4:1f:09:2d:84:cc:af:8c:78:
                    59:91:64:e7:a5:e3:cc:f9:ff:77:72:f1:f9:2c:89:
                    07:31:67:e4:a6:bb:96:95:bd:af:05:a1:a0:78:52:
                    89:19:d8:28:61:5e:ce:31:b7
                Exponent: 65537 (0x10001)
        X509v3 extensions:
            X509v3 Basic Constraints: 
                CA:FALSE
            Netscape Comment: 
                OpenSSL Generated Certificate
            X509v3 Subject Key Identifier: 
                4B:FA:FB:21:51:26:B1:67:EB:4F:F0:15:0E:A2:5D:02:4D:23:83:BC
            X509v3 Authority Key Identifier: 
                keyid:84:B6:1F:E6:CF:2E:BA:E2:D2:C9:4D:FE:4A:8B:F9:E3:89:DD:18:C2

    Signature Algorithm: sha256WithRSAEncryption
         55:43:48:0a:56:c9:17:af:1f:dc:f8:17:b8:e3:36:64:20:13:
         5e:7f:53:83:59:07:a7:7b:73:9b:86:5c:b5:43:10:14:3f:48:
         1b:47:7a:eb:c3:96:af:de:08:4a:83:4b:88:94:1e:9c:bc:6f:
         0b:58:06:f1:1e:12:ca:70:92:5b:40:b6:22:c5:da:07:91:36:
         2f:18:4b:58:d5:a4:87:1a:ba:51:61:76:a3:b1:75:19:7f:52:
         ea:c4:1d:f4:f6:ee:e1:de:01:82:21:eb:ee:ee:51:a8:2d:8f:
         df:d3:cd:70:9d:6b:10:15:48:69:bc:54:66:73:37:14:b2:f8:
         4d:5f:88:98:b5:35:f8:4d:eb:2f:4f:b3:24:10:7a:6d:ee:f9:
         ab:b7:c7:f6:75:e0:f1:73:30:ca:5c:86:25:48:f1:5b:d7:1a:
         08:f8:9b:33:d8:60:a6:32:43:be:dc:d9:b7:2e:1d:9c:a1:f9:
         6b:39:42:42:d1:0c:68:62:8f:37:56:bc:f8:29:a8:5d:cc:64:
         35:74:7c:56:59:37:5a:4f:64:81:92:bf:32:17:4b:e8:8d:f4:
         18:97:55:20:f9:f1:47:7c:5f:6b:b7:74:2f:4c:e5:53:04:71:
         8f:96:08:5f:d6:27:15:ae:4b:b6:7d:5b:e6:7e:20:e9:33:78:
         bf:2b:33:9e
-----BEGIN CERTIFICATE-----
MIIDiDCCAnCgAwIBAgIJAOj1baZYXF+OMA0GCSqGSIb3DQEBCwUAMIGSMQswCQYD
VQQGEwJDTjEPMA0GA1UECAwGRlVKSUFOMQ8wDQYDVQQHDAZGVVpIT1UxEDAOBgNV
BAoMB05FV0xBTkQxEDAOBgNVBAsMB05FV0xBTkQxETAPBgNVBAMMCFRPTS5DSEVO
MSowKAYJKoZIhvcNAQkBFht0b20uY2hlbkBuZXdsYW5kcGF5bWVudC5jb20wHhcN
MjAwOTI4MTQyNzU0WhcNMjEwOTI4MTQyNzU0WjB7MQswCQYDVQQGEwJDTjELMAkG
A1UECAwCRkoxCzAJBgNVBAcMAkZaMRAwDgYDVQQKDAdORVdMQU5EMRAwDgYDVQQL
DAdORVdMQU5EMRMwEQYDVQQDDApjaGVueGl1bGluMRkwFwYJKoZIhvcNAQkBFgpj
aGVueGl1bGluMIGfMA0GCSqGSIb3DQEBAQUAA4GNADCBiQKBgQDttoo5u8E9MA84
1Y7BjQsTil2+FoOXylrp+On3XZxjbijlZgl/FoaRoAZ4LTPuPRYTicB/Mai2yzU+
t/Dl2gVO3Kvwjr+SwUQdx8vrtotGTrQfCS2EzK+MeFmRZOel48z5/3dy8fksiQcx
Z+Smu5aVva8FoaB4UokZ2ChhXs4xtwIDAQABo3sweTAJBgNVHRMEAjAAMCwGCWCG
SAGG+EIBDQQfFh1PcGVuU1NMIEdlbmVyYXRlZCBDZXJ0aWZpY2F0ZTAdBgNVHQ4E
FgQUS/r7IVEmsWfrT/AVDqJdAk0jg7wwHwYDVR0jBBgwFoAUhLYf5s8uuuLSyU3+
Sov544ndGMIwDQYJKoZIhvcNAQELBQADggEBAFVDSApWyRevH9z4F7jjNmQgE15/
U4NZB6d7c5uGXLVDEBQ/SBtHeuvDlq/eCEqDS4iUHpy8bwtYBvEeEspwkltAtiLF
2geRNi8YS1jVpIcaulFhdqOxdRl/UurEHfT27uHeAYIh6+7uUagtj9/TzXCdaxAV
SGm8VGZzNxSy+E1fiJi1NfhN6y9PsyQQem3u+au3x/Z14PFzMMpchiVI8VvXGgj4
mzPYYKYyQ77c2bcuHZyh+Ws5QkLRDGhijzdWvPgpqF3MZDV0fFZZN1pPZIGSvzIX
S+iN9BiXVSD58Ud8X2u3dC9M5VMEcY+WCF/WJxWuS7Z9W+Z+IOkzeL8rM54=
-----END CERTIFICATE-----
